target datalayout = "e-m:e-p270:32:32-p271:32:32-p272:64:64-i64:64-i128:128-f80:128-n8:16:32:64-S128"
target triple = "x86_64-pc-linux-gnu"

%struct.AVFilterContext = type { ptr, ptr, ptr, ptr, ptr, i32, ptr, ptr, i32, ptr, ptr, i32, i32, ptr, ptr, ptr, ptr, i32, ptr, i32, i32 }
%struct.DecimateContext = type { ptr, ptr, i32, i32, ptr, ptr, [2 x i32], i64, i64, i64, i32, i32, i32, i32, i32, i32, i32, ptr, %struct.AVRational, %struct.AVRational, %struct.AVRational, i32, double, double, i64, i64, i32, i32, i32, i32, i32 }
%struct.AVRational = type { i32, i32 }
%struct.qitem = type { ptr, i64, i64 }

; Function Attrs: cold nounwind optsize uwtable
define internal void @decimate_uninit(ptr noundef %0) #0 {
  %2 = alloca ptr, align 8
  %3 = alloca i32, align 4
  %4 = alloca ptr, align 8
  store ptr %0, ptr %2, align 8, !tbaa !4
  call void @llvm.lifetime.start.p0(i64 4, ptr %3) #11
  call void @llvm.lifetime.start.p0(i64 8, ptr %4) #11
  %5 = load ptr, ptr %2, align 8, !tbaa !4
  %6 = getelementptr inbounds nuw %struct.AVFilterContext, ptr %5, i32 0, i32 9
  %7 = load ptr, ptr %6, align 8, !tbaa !9
  store ptr %7, ptr %4, align 8, !tbaa !22
  %8 = load ptr, ptr %4, align 8, !tbaa !22
  %9 = getelementptr inbounds nuw %struct.DecimateContext, ptr %8, i32 0, i32 4
  call void @av_frame_free(ptr noundef %9)
  %10 = load ptr, ptr %4, align 8, !tbaa !22
  %11 = getelementptr inbounds nuw %struct.DecimateContext, ptr %10, i32 0, i32 17
  call void @av_freep(ptr noundef %11)
  %12 = load ptr, ptr %4, align 8, !tbaa !22
  %13 = getelementptr inbounds nuw %struct.DecimateContext, ptr %12, i32 0, i32 1
  %14 = load ptr, ptr %13, align 8, !tbaa !41
  %15 = icmp ne ptr %14, null
  br i1 %15, label %16, label %35

16:                                               ; preds = %1
  store i32 0, ptr %3, align 4, !tbaa !24
  br label %17

17:                                               ; preds = %31, %16
  %18 = load i32, ptr %3, align 4, !tbaa !24
  %19 = load ptr, ptr %4, align 8, !tbaa !22
  %20 = getelementptr inbounds nuw %struct.DecimateContext, ptr %19, i32 0, i32 21
  %21 = load i32, ptr %20, align 8, !tbaa !42
  %22 = icmp slt i32 %18, %21
  br i1 %22, label %23, label %34

23:                                               ; preds = %17
  %24 = load ptr, ptr %4, align 8, !tbaa !22
  %25 = getelementptr inbounds nuw %struct.DecimateContext, ptr %24, i32 0, i32 1
  %26 = load ptr, ptr %25, align 8, !tbaa !41
  %27 = load i32, ptr %3, align 4, !tbaa !24
  %28 = sext i32 %27 to i64
  %29 = getelementptr inbounds %struct.qitem, ptr %26, i64 %28
  %30 = getelementptr inbounds nuw %struct.qitem, ptr %29, i32 0, i32 0
  call void @av_frame_free(ptr noundef %30)
  br label %31

31:                                               ; preds = %23
  %32 = load i32, ptr %3, align 4, !tbaa !24
  %33 = add nsw i32 %32, 1
  store i32 %33, ptr %3, align 4, !tbaa !24
  br label %17, !llvm.loop !43

34:                                               ; preds = %17
  br label %35

35:                                               ; preds = %34, %1
  %36 = load ptr, ptr %4, align 8, !tbaa !22
  %37 = getelementptr inbounds nuw %struct.DecimateContext, ptr %36, i32 0, i32 1
  call void @av_freep(ptr noundef %37)
  %38 = load ptr, ptr %4, align 8, !tbaa !22
  %39 = getelementptr inbounds nuw %struct.DecimateContext, ptr %38, i32 0, i32 5
  %40 = load ptr, ptr %39, align 8, !tbaa !45
  %41 = icmp ne ptr %40, null
  br i1 %41, label %42, label %60

42:                                               ; preds = %35
  store i32 0, ptr %3, align 4, !tbaa !24
  br label %43

43:                                               ; preds = %56, %42
  %44 = load i32, ptr %3, align 4, !tbaa !24
  %45 = load ptr, ptr %4, align 8, !tbaa !22
  %46 = getelementptr inbounds nuw %struct.DecimateContext, ptr %45, i32 0, i32 21
  %47 = load i32, ptr %46, align 8, !tbaa !42
  %48 = icmp slt i32 %44, %47
  br i1 %48, label %49, label %59

49:                                               ; preds = %43
  %50 = load ptr, ptr %4, align 8, !tbaa !22
  %51 = getelementptr inbounds nuw %struct.DecimateContext, ptr %50, i32 0, i32 5
  %52 = load ptr, ptr %51, align 8, !tbaa !45
  %53 = load i32, ptr %3, align 4, !tbaa !24
  %54 = sext i32 %53 to i64
  %55 = getelementptr inbounds ptr, ptr %52, i64 %54
  call void @av_frame_free(ptr noundef %55)
  br label %56

56:                                               ; preds = %49
  %57 = load i32, ptr %3, align 4, !tbaa !24
  %58 = add nsw i32 %57, 1
  store i32 %58, ptr %3, align 4, !tbaa !24
  br label %43, !llvm.loop !46

59:                                               ; preds = %43
  br label %60

60:                                               ; preds = %59, %35
  %61 = load ptr, ptr %4, align 8, !tbaa !22
  %62 = getelementptr inbounds nuw %struct.DecimateContext, ptr %61, i32 0, i32 5
  call void @av_freep(ptr noundef %62)
  call void @llvm.lifetime.end.p0(i64 8, ptr %4) #11
  call void @llvm.lifetime.end.p0(i64 4, ptr %3) #11
  ret void
}