; Function Attrs: cold nounwind optsize uwtable
define internal void @decimate_uninit(ptr noundef readonly captures(none) %0) #0 {
  %2 = getelementptr inbounds nuw i8, ptr %0, i64 72
  %3 = load ptr, ptr %2, align 8, !tbaa !4
  %4 = getelementptr inbounds nuw i8, ptr %3, i64 24
  tail call void @av_frame_free(ptr noundef nonnull %4) #9
  %5 = getelementptr inbounds nuw i8, ptr %3, i64 104
  tail call void @av_freep(ptr noundef nonnull %5) #9
  %6 = getelementptr inbounds nuw i8, ptr %3, i64 8
  %7 = load ptr, ptr %6, align 8, !tbaa !36
  %.not = icmp eq ptr %7, null
  br i1 %.not, label %.loopexit18, label %.preheader17

.preheader17:                                     ; preds = %1
  %8 = getelementptr inbounds nuw i8, ptr %3, i64 136
  %9 = load i32, ptr %8, align 8, !tbaa !37
  %10 = icmp sgt i32 %9, 0
  br i1 %10, label %.lr.ph, label %.loopexit18

.lr.ph:                                           ; preds = %.preheader17, %.lr.ph
  %indvars.iv = phi i64 [ %indvars.iv.next, %.lr.ph ], [ 0, %.preheader17 ]
  %11 = load ptr, ptr %6, align 8, !tbaa !36
  %12 = getelementptr inbounds nuw %struct.qitem, ptr %11, i64 %indvars.iv
  tail call void @av_frame_free(ptr noundef %12) #9
  %indvars.iv.next = add nuw nsw i64 %indvars.iv, 1
  %13 = load i32, ptr %8, align 8, !tbaa !37
  %14 = sext i32 %13 to i64
  %15 = icmp slt i64 %indvars.iv.next, %14
  br i1 %15, label %.lr.ph, label %.loopexit18, !llvm.loop !38

.loopexit18:                                      ; preds = %.lr.ph, %.preheader17, %1
  tail call void @av_freep(ptr noundef nonnull %6) #9
  %16 = getelementptr inbounds nuw i8, ptr %3, i64 32
  %17 = load ptr, ptr %16, align 8, !tbaa !40
  %.not16 = icmp eq ptr %17, null
  br i1 %.not16, label %.loopexit, label %.preheader

.preheader:                                       ; preds = %.loopexit18
  %18 = getelementptr inbounds nuw i8, ptr %3, i64 136
  %19 = load i32, ptr %18, align 8, !tbaa !37
  %20 = icmp sgt i32 %19, 0
  br i1 %20, label %.lr.ph21, label %.loopexit

.lr.ph21:                                         ; preds = %.preheader, %.lr.ph21
  %indvars.iv23 = phi i64 [ %indvars.iv.next24, %.lr.ph21 ], [ 0, %.preheader ]
  %21 = load ptr, ptr %16, align 8, !tbaa !40
  %22 = getelementptr inbounds nuw ptr, ptr %21, i64 %indvars.iv23
  tail call void @av_frame_free(ptr noundef %22) #9
  %indvars.iv.next24 = add nuw nsw i64 %indvars.iv23, 1
  %23 = load i32, ptr %18, align 8, !tbaa !37
  %24 = sext i32 %23 to i64
  %25 = icmp slt i64 %indvars.iv.next24, %24
  br i1 %25, label %.lr.ph21, label %.loopexit, !llvm.loop !41

.loopexit:                                        ; preds = %.lr.ph21, %.preheader, %.loopexit18
  tail call void @av_freep(ptr noundef nonnull %16) #9
  ret void
}